; Function Attrs: mustprogress uwtable
define internal void @_ZNK2cv4impl12_GLOBAL__N_120CvtColorLoop_InvokerINS_3hal12cpu_baseline12_GLOBAL__N_110RGB2RGB5x5EEclERKNS_5RangeE(ptr nocapture noundef nonnull readonly align 8 dereferenceable(56) %0, ptr nocapture noundef nonnull readonly align 4 dereferenceable(8) %1) unnamed_addr #0 align 2 personality ptr @__gxx_personality_v0 {
  %3 = alloca %"class.cv::utils::trace::details::Region", align 8
  call void @_ZN2cv5utils5trace7details6RegionC1ERKNS3_21LocationStaticStorageE(ptr noundef nonnull align 8 dereferenceable(12) %3, ptr noundef nonnull align 8 dereferenceable(32) @_ZZNK2cv4impl12_GLOBAL__N_120CvtColorLoop_InvokerINS_3hal12cpu_baseline12_GLOBAL__N_110RGB2RGB5x5EEclERKNS_5RangeEE25__cv_trace_location_fn146)
  %4 = load i32, ptr %1, align 4
  %5 = getelementptr inbounds i8, ptr %0, i64 16
  %6 = getelementptr inbounds i8, ptr %0, i64 32
  %7 = getelementptr inbounds i8, ptr %1, i64 4
  %8 = load i32, ptr %7, align 4
  %9 = icmp slt i32 %4, %8
  br i1 %9, label %.lr.ph, label %._crit_edge

.lr.ph:                                           ; preds = %2
  %10 = getelementptr inbounds i8, ptr %0, i64 40
  %11 = getelementptr inbounds i8, ptr %0, i64 48
  %12 = load i32, ptr %10, align 8
  %13 = icmp sgt i32 %12, 0
  br i1 %13, label %.lr.ph.split.preheader, label %._crit_edge

.lr.ph.split.preheader:                           ; preds = %.lr.ph
  %14 = getelementptr inbounds i8, ptr %0, i64 24
  %15 = load ptr, ptr %14, align 8
  %16 = load i64, ptr %6, align 8
  %17 = sext i32 %4 to i64
  %18 = mul i64 %16, %17
  %19 = getelementptr inbounds i8, ptr %15, i64 %18
  %20 = getelementptr inbounds i8, ptr %0, i64 8
  %21 = load ptr, ptr %20, align 8
  %22 = load i64, ptr %5, align 8
  %23 = mul i64 %22, %17
  %24 = getelementptr inbounds i8, ptr %21, i64 %23
  br label %.lr.ph.split

.lr.ph.split:                                     ; preds = %.lr.ph.split.preheader, %_ZNK2cv3hal12cpu_baseline12_GLOBAL__N_110RGB2RGB5x5clEPKhPhi.exit
  %.017 = phi i32 [ %119, %_ZNK2cv3hal12cpu_baseline12_GLOBAL__N_110RGB2RGB5x5clEPKhPhi.exit ], [ %4, %.lr.ph.split.preheader ]
  %.01016 = phi ptr [ %123, %_ZNK2cv3hal12cpu_baseline12_GLOBAL__N_110RGB2RGB5x5clEPKhPhi.exit ], [ %19, %.lr.ph.split.preheader ]
  %.01115 = phi ptr [ %121, %_ZNK2cv3hal12cpu_baseline12_GLOBAL__N_110RGB2RGB5x5clEPKhPhi.exit ], [ %24, %.lr.ph.split.preheader ]
  %25 = load i32, ptr %10, align 8
  %26 = icmp sgt i32 %25, 0
  br i1 %26, label %.lr.ph.i, label %_ZNK2cv3hal12cpu_baseline12_GLOBAL__N_110RGB2RGB5x5clEPKhPhi.exit

.lr.ph.i:                                         ; preds = %.lr.ph.split
  %27 = load ptr, ptr %11, align 8
  %28 = getelementptr inbounds i8, ptr %27, i64 8
  %29 = load i32, ptr %28, align 4
  %30 = getelementptr inbounds i8, ptr %27, i64 4
  %31 = load i32, ptr %30, align 4
  %32 = load i32, ptr %27, align 4
  %33 = xor i32 %31, 2
  %34 = sext i32 %33 to i64
  %35 = sext i32 %31 to i64
  %36 = icmp eq i32 %32, 4
  %37 = icmp eq i32 %29, 6
  %38 = sext i32 %32 to i64
  br i1 %37, label %.lr.ph.split.us.i, label %.lr.ph.split.i

.lr.ph.split.us.i:                                ; preds = %.lr.ph.i
  br i1 %36, label %.lr.ph.split.us.split.us.i, label %.lr.ph.split.us.split.i

.lr.ph.split.us.split.us.i:                       ; preds = %.lr.ph.split.us.i, %.lr.ph.split.us.split.us.i
  %.02328.us.us.i = phi ptr [ %56, %.lr.ph.split.us.split.us.i ], [ %.01115, %.lr.ph.split.us.i ]
  %.02427.us.us.i = phi ptr [ %57, %.lr.ph.split.us.split.us.i ], [ %.01016, %.lr.ph.split.us.i ]
  %.02526.us.us.i = phi i32 [ %55, %.lr.ph.split.us.split.us.i ], [ 0, %.lr.ph.split.us.i ]
  %39 = getelementptr inbounds i8, ptr %.02328.us.us.i, i64 %34
  %40 = load i8, ptr %39, align 1
  %41 = getelementptr inbounds i8, ptr %.02328.us.us.i, i64 1
  %42 = load i8, ptr %41, align 1
  %43 = getelementptr inbounds i8, ptr %.02328.us.us.i, i64 %35
  %44 = load i8, ptr %43, align 1
  %45 = lshr i8 %44, 3
  %46 = zext nneg i8 %45 to i16
  %47 = and i8 %42, -4
  %48 = zext i8 %47 to i16
  %49 = shl nuw nsw i16 %48, 3
  %50 = or disjoint i16 %49, %46
  %51 = and i8 %40, -8
  %52 = zext i8 %51 to i16
  %53 = shl nuw i16 %52, 8
  %54 = or disjoint i16 %50, %53
  store i16 %54, ptr %.02427.us.us.i, align 2
  %55 = add nuw nsw i32 %.02526.us.us.i, 1
  %56 = getelementptr inbounds i8, ptr %.02328.us.us.i, i64 %38
  %57 = getelementptr inbounds i8, ptr %.02427.us.us.i, i64 2
  %exitcond37.not.i = icmp eq i32 %55, %25
  br i1 %exitcond37.not.i, label %_ZNK2cv3hal12cpu_baseline12_GLOBAL__N_110RGB2RGB5x5clEPKhPhi.exit, label %.lr.ph.split.us.split.us.i, !llvm.loop !62

.lr.ph.split.us.split.i:                          ; preds = %.lr.ph.split.us.i, %.lr.ph.split.us.split.i
  %.02328.us.i = phi ptr [ %75, %.lr.ph.split.us.split.i ], [ %.01115, %.lr.ph.split.us.i ]
  %.02427.us.i = phi ptr [ %76, %.lr.ph.split.us.split.i ], [ %.01016, %.lr.ph.split.us.i ]
  %.02526.us.i = phi i32 [ %74, %.lr.ph.split.us.split.i ], [ 0, %.lr.ph.split.us.i ]
  %58 = getelementptr inbounds i8, ptr %.02328.us.i, i64 %34
  %59 = load i8, ptr %58, align 1
  %60 = getelementptr inbounds i8, ptr %.02328.us.i, i64 1
  %61 = load i8, ptr %60, align 1
  %62 = getelementptr inbounds i8, ptr %.02328.us.i, i64 %35
  %63 = load i8, ptr %62, align 1
  %64 = lshr i8 %63, 3
  %65 = zext nneg i8 %64 to i16
  %66 = and i8 %61, -4
  %67 = zext i8 %66 to i16
  %68 = shl nuw nsw i16 %67, 3
  %69 = or disjoint i16 %68, %65
  %70 = and i8 %59, -8
  %71 = zext i8 %70 to i16
  %72 = shl nuw i16 %71, 8
  %73 = or disjoint i16 %69, %72
  store i16 %73, ptr %.02427.us.i, align 2
  %74 = add nuw nsw i32 %.02526.us.i, 1
  %75 = getelementptr inbounds i8, ptr %.02328.us.i, i64 %38
  %76 = getelementptr inbounds i8, ptr %.02427.us.i, i64 2
  %exitcond36.not.i = icmp eq i32 %74, %25
  br i1 %exitcond36.not.i, label %_ZNK2cv3hal12cpu_baseline12_GLOBAL__N_110RGB2RGB5x5clEPKhPhi.exit, label %.lr.ph.split.us.split.i, !llvm.loop !62

.lr.ph.split.i:                                   ; preds = %.lr.ph.i
  br i1 %36, label %.lr.ph.split.split.us.i, label %.lr.ph.split.split.i

.lr.ph.split.split.us.i:                          ; preds = %.lr.ph.split.i, %.lr.ph.split.split.us.i
  %.02328.us29.i = phi ptr [ %98, %.lr.ph.split.split.us.i ], [ %.01115, %.lr.ph.split.i ]
  %.02427.us30.i = phi ptr [ %99, %.lr.ph.split.split.us.i ], [ %.01016, %.lr.ph.split.i ]
  %.02526.us31.i = phi i32 [ %97, %.lr.ph.split.split.us.i ], [ 0, %.lr.ph.split.i ]
  %77 = getelementptr inbounds i8, ptr %.02328.us29.i, i64 %34
  %78 = load i8, ptr %77, align 1
  %79 = getelementptr inbounds i8, ptr %.02328.us29.i, i64 1
  %80 = load i8, ptr %79, align 1
  %81 = getelementptr inbounds i8, ptr %.02328.us29.i, i64 %35
  %82 = load i8, ptr %81, align 1
  %83 = getelementptr inbounds i8, ptr %.02328.us29.i, i64 3
  %84 = load i8, ptr %83, align 1
  %85 = lshr i8 %82, 3
  %86 = zext nneg i8 %85 to i16
  %87 = and i8 %80, -8
  %88 = zext i8 %87 to i16
  %89 = shl nuw nsw i16 %88, 2
  %90 = or disjoint i16 %89, %86
  %91 = and i8 %78, -8
  %92 = zext i8 %91 to i16
  %93 = shl nuw nsw i16 %92, 7
  %94 = or disjoint i16 %90, %93
  %.not.us.i = icmp eq i8 %84, 0
  %95 = select i1 %.not.us.i, i16 0, i16 -32768
  %96 = or disjoint i16 %94, %95
  store i16 %96, ptr %.02427.us30.i, align 2
  %97 = add nuw nsw i32 %.02526.us31.i, 1
  %98 = getelementptr inbounds i8, ptr %.02328.us29.i, i64 %38
  %99 = getelementptr inbounds i8, ptr %.02427.us30.i, i64 2
  %exitcond35.not.i = icmp eq i32 %97, %25
  br i1 %exitcond35.not.i, label %_ZNK2cv3hal12cpu_baseline12_GLOBAL__N_110RGB2RGB5x5clEPKhPhi.exit, label %.lr.ph.split.split.us.i, !llvm.loop !62

.lr.ph.split.split.i:                             ; preds = %.lr.ph.split.i, %.lr.ph.split.split.i
  %.02328.i = phi ptr [ %117, %.lr.ph.split.split.i ], [ %.01115, %.lr.ph.split.i ]
  %.02427.i = phi ptr [ %118, %.lr.ph.split.split.i ], [ %.01016, %.lr.ph.split.i ]
  %.02526.i = phi i32 [ %116, %.lr.ph.split.split.i ], [ 0, %.lr.ph.split.i ]
  %100 = getelementptr inbounds i8, ptr %.02328.i, i64 %34
  %101 = load i8, ptr %100, align 1
  %102 = getelementptr inbounds i8, ptr %.02328.i, i64 1
  %103 = load i8, ptr %102, align 1
  %104 = getelementptr inbounds i8, ptr %.02328.i, i64 %35
  %105 = load i8, ptr %104, align 1
  %106 = lshr i8 %105, 3
  %107 = zext nneg i8 %106 to i16
  %108 = and i8 %103, -8
  %109 = zext i8 %108 to i16
  %110 = shl nuw nsw i16 %109, 2
  %111 = or disjoint i16 %110, %107
  %112 = and i8 %101, -8
  %113 = zext i8 %112 to i16
  %114 = shl nuw nsw i16 %113, 7
  %115 = or disjoint i16 %111, %114
  store i16 %115, ptr %.02427.i, align 2
  %116 = add nuw nsw i32 %.02526.i, 1
  %117 = getelementptr inbounds i8, ptr %.02328.i, i64 %38
  %118 = getelementptr inbounds i8, ptr %.02427.i, i64 2
  %exitcond.not.i = icmp eq i32 %116, %25
  br i1 %exitcond.not.i, label %_ZNK2cv3hal12cpu_baseline12_GLOBAL__N_110RGB2RGB5x5clEPKhPhi.exit, label %.lr.ph.split.split.i, !llvm.loop !62

_ZNK2cv3hal12cpu_baseline12_GLOBAL__N_110RGB2RGB5x5clEPKhPhi.exit: ; preds = %.lr.ph.split.split.i, %.lr.ph.split.split.us.i, %.lr.ph.split.us.split.i, %.lr.ph.split.us.split.us.i, %.lr.ph.split
  %119 = add nsw i32 %.017, 1
  %120 = load i64, ptr %5, align 8
  %121 = getelementptr inbounds i8, ptr %.01115, i64 %120
  %122 = load i64, ptr %6, align 8
  %123 = getelementptr inbounds i8, ptr %.01016, i64 %122
  %124 = load i32, ptr %7, align 4
  %125 = icmp slt i32 %119, %124
  br i1 %125, label %.lr.ph.split, label %._crit_edge, !llvm.loop !63

._crit_edge:                                      ; preds = %_ZNK2cv3hal12cpu_baseline12_GLOBAL__N_110RGB2RGB5x5clEPKhPhi.exit, %.lr.ph, %2
  %126 = getelementptr inbounds i8, ptr %3, i64 8
  %127 = load i32, ptr %126, align 8
  %.not.i = icmp eq i32 %127, 0
  br i1 %.not.i, label %_ZN2cv5utils5trace7details6RegionD2Ev.exit, label %128

128:                                              ; preds = %._crit_edge
  invoke void @_ZN2cv5utils5trace7details6Region7destroyEv(ptr noundef nonnull align 8 dereferenceable(12) %3)
          to label %_ZN2cv5utils5trace7details6RegionD2Ev.exit unwind label %129

129:                                              ; preds = %128
  %130 = landingpad { ptr, i32 }
          catch ptr null
  %131 = extractvalue { ptr, i32 } %130, 0
  call void @__clang_call_terminate(ptr %131) #13
  unreachable

_ZN2cv5utils5trace7details6RegionD2Ev.exit:       ; preds = %._crit_edge, %128
  ret void
}